target datalayout = "e-m:e-p270:32:32-p271:32:32-p272:64:64-i64:64-i128:128-f80:128-n8:16:32:64-S128"
target triple = "x86_64-pc-linux-gnu"

%struct.GVJ_s = type { ptr, ptr, ptr, ptr, ptr, ptr, i32, ptr, ptr, ptr, ptr, i64, i64, ptr, i32, %struct.gvplugin_active_render_s, %struct.gvplugin_active_device_s, %struct.gvplugin_active_loadimage_t, ptr, %struct.pointf_s, i8, ptr, i32, ptr, i8, ptr, i32, i32, i32, %struct.point, %struct.point, %struct.point, %struct.point, %struct.point, i32, %struct.boxf, %struct.pointf_s, %struct.boxf, %struct.boxf, %struct.pointf_s, %struct.pointf_s, double, i32, %struct.pointf_s, %struct.boxf, %struct.pointf_s, %struct.pointf_s, i32, i32, %struct.box, %struct.box, %struct.pointf_s, %struct.pointf_s, %struct.pointf_s, i8, i8, i8, i8, i8, i8, %struct.pointf_s, %struct.pointf_s, ptr, ptr, ptr, ptr, ptr, ptr, i64, ptr }
%struct.gvplugin_active_render_s = type { ptr, i32, ptr, ptr }
%struct.gvplugin_active_device_s = type { ptr, i32, ptr, ptr }
%struct.gvplugin_active_loadimage_t = type { ptr, i32, ptr }
%struct.point = type { i32, i32 }
%struct.boxf = type { %struct.pointf_s, %struct.pointf_s }
%struct.box = type { %struct.point, %struct.point }
%struct.pointf_s = type { double, double }
%struct.obj_state_s = type { ptr, i32, %union.anon, i32, %struct.color_s, %struct.color_s, %struct.color_s, i32, double, i32, i32, double, ptr, double, double, double, ptr, ptr, ptr, ptr, ptr, ptr, ptr, ptr, ptr, ptr, ptr, ptr, ptr, ptr, ptr, ptr, ptr, i16, i32, i64, ptr, i64, ptr, ptr, i32, ptr, i32, ptr }
%union.anon = type { ptr }
%struct.color_s = type { %union.anon.0, i32 }
%union.anon.0 = type { [4 x double] }

@stderr = external global ptr, align 8
@.str.41 = private unnamed_addr constant [49 x i8] c"out of memory when trying to allocate %zu bytes\0A\00", align 1
@.str.43 = private unnamed_addr constant [58 x i8] c"integer overflow when trying to allocate %zu * %zu bytes\0A\00", align 1

; Function Attrs: inlinehint nounwind uwtable
define internal ptr @gv_calloc(i64 noundef %0, i64 noundef %1) #3 {
  %3 = alloca i64, align 8
  %4 = alloca i64, align 8
  %5 = alloca ptr, align 8
  store i64 %0, ptr %3, align 8, !tbaa !49
  store i64 %1, ptr %4, align 8, !tbaa !49
  %6 = load i64, ptr %3, align 8, !tbaa !49
  %7 = icmp ugt i64 %6, 0
  br i1 %7, label %8, label %18

8:                                                ; preds = %2
  %9 = load i64, ptr %3, align 8, !tbaa !49
  %10 = udiv i64 -1, %9
  %11 = load i64, ptr %4, align 8, !tbaa !49
  %12 = icmp ult i64 %10, %11
  br i1 %12, label %13, label %18

13:                                               ; preds = %8
  %14 = load ptr, ptr @stderr, align 8, !tbaa !68
  %15 = load i64, ptr %3, align 8, !tbaa !49
  %16 = load i64, ptr %4, align 8, !tbaa !49
  %17 = call i32 (ptr, ptr, ...) @fprintf(ptr noundef %14, ptr noundef @.str.43, i64 noundef %15, i64 noundef %16) #15
  call void @graphviz_exit(i32 noundef 1) #17
  unreachable

18:                                               ; preds = %8, %2
  call void @llvm.lifetime.start.p0(i64 8, ptr %5) #15
  %19 = load i64, ptr %3, align 8, !tbaa !49
  %20 = load i64, ptr %4, align 8, !tbaa !49
  %21 = call noalias ptr @calloc(i64 noundef %19, i64 noundef %20) #18
  store ptr %21, ptr %5, align 8, !tbaa !8
  %22 = load i64, ptr %3, align 8, !tbaa !49
  %23 = icmp ugt i64 %22, 0
  br i1 %23, label %24, label %36

24:                                               ; preds = %18
  %25 = load i64, ptr %4, align 8, !tbaa !49
  %26 = icmp ugt i64 %25, 0
  br i1 %26, label %27, label %36

27:                                               ; preds = %24
  %28 = load ptr, ptr %5, align 8, !tbaa !8
  %29 = icmp eq ptr %28, null
  br i1 %29, label %30, label %36

30:                                               ; preds = %27
  %31 = load ptr, ptr @stderr, align 8, !tbaa !68
  %32 = load i64, ptr %3, align 8, !tbaa !49
  %33 = load i64, ptr %4, align 8, !tbaa !49
  %34 = mul i64 %32, %33
  %35 = call i32 (ptr, ptr, ...) @fprintf(ptr noundef %31, ptr noundef @.str.41, i64 noundef %34) #15
  call void @graphviz_exit(i32 noundef 1) #17
  unreachable

36:                                               ; preds = %27, %24, %18
  %37 = load ptr, ptr %5, align 8, !tbaa !8
  call void @llvm.lifetime.end.p0(i64 8, ptr %5) #15
  ret ptr %37
}

; Function Attrs: nounwind uwtable
define void @emit_map_rect(ptr noundef %0, ptr noundef byval(%struct.boxf) align 8 %1) #0 {
  %3 = alloca ptr, align 8
  %4 = alloca ptr, align 8
  %5 = alloca i32, align 4
  %6 = alloca ptr, align 8
  store ptr %0, ptr %3, align 8, !tbaa !12
  call void @llvm.lifetime.start.p0(i64 8, ptr %4) #15
  %7 = load ptr, ptr %3, align 8, !tbaa !12
  %8 = getelementptr inbounds nuw %struct.GVJ_s, ptr %7, i32 0, i32 4
  %9 = load ptr, ptr %8, align 8, !tbaa !16
  store ptr %9, ptr %4, align 8, !tbaa !14
  call void @llvm.lifetime.start.p0(i64 4, ptr %5) #15
  %10 = load ptr, ptr %3, align 8, !tbaa !12
  %11 = getelementptr inbounds nuw %struct.GVJ_s, ptr %10, i32 0, i32 26
  %12 = load i32, ptr %11, align 8, !tbaa !66
  store i32 %12, ptr %5, align 4, !tbaa !44
  call void @llvm.lifetime.start.p0(i64 8, ptr %6) #15
  %13 = load i32, ptr %5, align 4, !tbaa !44
  %14 = and i32 %13, 4259840
  %15 = icmp ne i32 %14, 0
  br i1 %15, label %16, label %61

16:                                               ; preds = %2
  %17 = load i32, ptr %5, align 4, !tbaa !44
  %18 = and i32 %17, 131072
  %19 = icmp ne i32 %18, 0
  br i1 %19, label %20, label %25

20:                                               ; preds = %16
  %21 = load ptr, ptr %4, align 8, !tbaa !14
  %22 = getelementptr inbounds nuw %struct.obj_state_s, ptr %21, i32 0, i32 34
  store i32 0, ptr %22, align 4, !tbaa !136
  %23 = load ptr, ptr %4, align 8, !tbaa !14
  %24 = getelementptr inbounds nuw %struct.obj_state_s, ptr %23, i32 0, i32 35
  store i64 2, ptr %24, align 8, !tbaa !137
  br label %30

25:                                               ; preds = %16
  %26 = load ptr, ptr %4, align 8, !tbaa !14
  %27 = getelementptr inbounds nuw %struct.obj_state_s, ptr %26, i32 0, i32 34
  store i32 2, ptr %27, align 4, !tbaa !136
  %28 = load ptr, ptr %4, align 8, !tbaa !14
  %29 = getelementptr inbounds nuw %struct.obj_state_s, ptr %28, i32 0, i32 35
  store i64 4, ptr %29, align 8, !tbaa !137
  br label %30

30:                                               ; preds = %25, %20
  %31 = load ptr, ptr %4, align 8, !tbaa !14
  %32 = getelementptr inbounds nuw %struct.obj_state_s, ptr %31, i32 0, i32 36
  %33 = load ptr, ptr %32, align 8, !tbaa !63
  call void @free(ptr noundef %33) #15
  %34 = load ptr, ptr %4, align 8, !tbaa !14
  %35 = getelementptr inbounds nuw %struct.obj_state_s, ptr %34, i32 0, i32 35
  %36 = load i64, ptr %35, align 8, !tbaa !137
  %37 = call ptr @gv_calloc(i64 noundef %36, i64 noundef 16)
  store ptr %37, ptr %6, align 8, !tbaa !105
  %38 = load ptr, ptr %4, align 8, !tbaa !14
  %39 = getelementptr inbounds nuw %struct.obj_state_s, ptr %38, i32 0, i32 36
  store ptr %37, ptr %39, align 8, !tbaa !63
  %40 = load ptr, ptr %6, align 8, !tbaa !105
  %41 = getelementptr inbounds %struct.pointf_s, ptr %40, i64 0
  %42 = getelementptr inbounds nuw %struct.boxf, ptr %1, i32 0, i32 0
  call void @llvm.memcpy.p0.p0.i64(ptr align 8 %41, ptr align 8 %42, i64 16, i1 false), !tbaa.struct !134
  %43 = load ptr, ptr %6, align 8, !tbaa !105
  %44 = getelementptr inbounds %struct.pointf_s, ptr %43, i64 1
  %45 = getelementptr inbounds nuw %struct.boxf, ptr %1, i32 0, i32 1
  call void @llvm.memcpy.p0.p0.i64(ptr align 8 %44, ptr align 8 %45, i64 16, i1 false), !tbaa.struct !134
  %46 = load i32, ptr %5, align 4, !tbaa !44
  %47 = and i32 %46, 8192
  %48 = icmp ne i32 %47, 0
  br i1 %48, label %54, label %49

49:                                               ; preds = %30
  %50 = load ptr, ptr %3, align 8, !tbaa !12
  %51 = load ptr, ptr %6, align 8, !tbaa !105
  %52 = load ptr, ptr %6, align 8, !tbaa !105
  %53 = call ptr @gvrender_ptf_A(ptr noundef %50, ptr noundef %51, ptr noundef %52, i64 noundef 2)
  br label %54

54:                                               ; preds = %49, %30
  %55 = load i32, ptr %5, align 4, !tbaa !44
  %56 = and i32 %55, 131072
  %57 = icmp ne i32 %56, 0
  br i1 %57, label %60, label %58

58:                                               ; preds = %54
  %59 = load ptr, ptr %6, align 8, !tbaa !105
  call void @rect2poly(ptr noundef %59)
  br label %60

60:                                               ; preds = %58, %54
  br label %61

61:                                               ; preds = %60, %2
  call void @llvm.lifetime.end.p0(i64 8, ptr %6) #15
  call void @llvm.lifetime.end.p0(i64 4, ptr %5) #15
  call void @llvm.lifetime.end.p0(i64 8, ptr %4) #15
  ret void
}