; Function Attrs: nounwind uwtable
define void @emit_map_rect(ptr noundef %0, ptr noundef readonly byval(%struct.boxf) align 8 captures(none) %1) local_unnamed_addr #0 {
  %3 = getelementptr inbounds nuw i8, ptr %0, i64 280
  %4 = load i32, ptr %3, align 8, !tbaa !60
  %5 = and i32 %4, 4259840
  %.not = icmp eq i32 %5, 0
  br i1 %.not, label %36, label %6

6:                                                ; preds = %2
  %7 = getelementptr inbounds nuw i8, ptr %0, i64 32
  %8 = load ptr, ptr %7, align 8, !tbaa !9
  %9 = and i32 %4, 131072
  %.not18 = icmp eq i32 %9, 0
  %10 = lshr exact i32 %9, 16
  %spec.select = xor i32 %10, 2
  %spec.select23 = select i1 %.not18, i64 4, i64 2
  %11 = getelementptr inbounds nuw i8, ptr %8, i64 356
  store i32 %spec.select, ptr %11, align 4, !tbaa !135
  %12 = getelementptr inbounds nuw i8, ptr %8, i64 360
  store i64 %spec.select23, ptr %12, align 8, !tbaa !136
  %13 = getelementptr inbounds nuw i8, ptr %8, i64 368
  %14 = load ptr, ptr %13, align 8, !tbaa !57
  tail call void @free(ptr noundef %14) #27
  %15 = load i64, ptr %12, align 8, !tbaa !136
  %.not21 = icmp eq i64 %15, 0
  br i1 %.not21, label %.thread, label %17

.thread:                                          ; preds = %6
  %16 = tail call noalias ptr @calloc(i64 noundef 0, i64 noundef 16) #28
  br label %gv_calloc.exit

17:                                               ; preds = %6
  %mul.ov.i = icmp ugt i64 %15, 1152921504606846975
  br i1 %mul.ov.i, label %18, label %21

18:                                               ; preds = %17
  %19 = load ptr, ptr @stderr, align 8, !tbaa !6
  %20 = tail call i32 (ptr, ptr, ...) @fprintf(ptr noundef %19, ptr noundef nonnull @.str.43, i64 noundef %15, i64 noundef 16) #29
  tail call fastcc void @graphviz_exit() #30
  unreachable

21:                                               ; preds = %17
  %22 = tail call noalias ptr @calloc(i64 noundef %15, i64 noundef 16) #28
  %23 = icmp eq ptr %22, null
  br i1 %23, label %24, label %gv_calloc.exit

24:                                               ; preds = %21
  %25 = load ptr, ptr @stderr, align 8, !tbaa !6
  %26 = shl nuw i64 %15, 4
  %27 = tail call i32 (ptr, ptr, ...) @fprintf(ptr noundef %25, ptr noundef nonnull @.str.41, i64 noundef %26) #29
  tail call fastcc void @graphviz_exit() #30
  unreachable

gv_calloc.exit:                                   ; preds = %.thread, %21
  %28 = phi ptr [ %16, %.thread ], [ %22, %21 ]
  store ptr %28, ptr %13, align 8, !tbaa !57
  call void @llvm.memcpy.p0.p0.i64(ptr noundef nonnull align 8 dereferenceable(16) %28, ptr noundef nonnull align 8 dereferenceable(16) %1, i64 16, i1 false), !tbaa.struct !126
  %29 = getelementptr inbounds nuw i8, ptr %28, i64 16
  %30 = getelementptr inbounds nuw i8, ptr %1, i64 16
  call void @llvm.memcpy.p0.p0.i64(ptr noundef nonnull align 8 dereferenceable(16) %29, ptr noundef nonnull align 8 dereferenceable(16) %30, i64 16, i1 false), !tbaa.struct !126
  %31 = and i32 %4, 8192
  %.not19 = icmp eq i32 %31, 0
  br i1 %.not19, label %32, label %34

32:                                               ; preds = %gv_calloc.exit
  %33 = tail call ptr @gvrender_ptf_A(ptr noundef nonnull %0, ptr noundef nonnull %28, ptr noundef nonnull %28, i64 noundef 2) #27
  br label %34

34:                                               ; preds = %32, %gv_calloc.exit
  br i1 %.not18, label %35, label %36

35:                                               ; preds = %34
  tail call void @rect2poly(ptr noundef nonnull %28) #27
  br label %36

36:                                               ; preds = %34, %35, %2
  ret void
}